target datalayout = "e-m:e-p270:32:32-p271:32:32-p272:64:64-i64:64-i128:128-f80:128-n8:16:32:64-S128"
target triple = "x86_64-pc-linux-gnu"

%struct.test_fixture = type { ptr, ptr, i32, i32, i32, ptr, i32, ptr }

@newkey = internal global ptr null, align 8
@libctx = internal global ptr null, align 8
@.str.14 = private unnamed_addr constant [31 x i8] c"../openssl/test/cmp_msg_test.c\00", align 1
@pkcs10_f = internal global ptr null, align 8
@.str.36 = private unnamed_addr constant [22 x i8] c"test_cmp_create_p10cr\00", align 1
@.str.57 = private unnamed_addr constant [26 x i8] c"set1_newPkey(ctx, newkey)\00", align 1
@.str.64 = private unnamed_addr constant [39 x i8] c"p10cr = load_csr_der(pkcs10_f, libctx)\00", align 1
@.str.65 = private unnamed_addr constant [37 x i8] c"OSSL_CMP_CTX_set1_p10CSR(ctx, p10cr)\00", align 1

; Function Attrs: nounwind uwtable
define internal void @tear_down(ptr noundef %0) #0 {
  %2 = alloca ptr, align 8
  store ptr %0, ptr %2, align 8, !tbaa !17
  %3 = load ptr, ptr %2, align 8, !tbaa !17
  %4 = getelementptr inbounds nuw %struct.test_fixture, ptr %3, i32 0, i32 1
  %5 = load ptr, ptr %4, align 8, !tbaa !28
  call void @OSSL_CMP_CTX_free(ptr noundef %5)
  %6 = load ptr, ptr %2, align 8, !tbaa !17
  %7 = getelementptr inbounds nuw %struct.test_fixture, ptr %6, i32 0, i32 5
  %8 = load ptr, ptr %7, align 8, !tbaa !37
  call void @OSSL_CMP_MSG_free(ptr noundef %8)
  %9 = load ptr, ptr %2, align 8, !tbaa !17
  %10 = getelementptr inbounds nuw %struct.test_fixture, ptr %9, i32 0, i32 7
  %11 = load ptr, ptr %10, align 8, !tbaa !30
  call void @OSSL_CMP_PKISI_free(ptr noundef %11)
  %12 = load ptr, ptr %2, align 8, !tbaa !17
  call void @CRYPTO_free(ptr noundef %12, ptr noundef @.str.14, i32 noundef 43)
  ret void
}

; Function Attrs: nounwind uwtable
define internal i32 @set1_newPkey(ptr noundef %0, ptr noundef %1) #0 {
  %3 = alloca i32, align 4
  %4 = alloca ptr, align 8
  %5 = alloca ptr, align 8
  store ptr %0, ptr %4, align 8, !tbaa !29
  store ptr %1, ptr %5, align 8, !tbaa !4
  %6 = load ptr, ptr %5, align 8, !tbaa !4
  %7 = call i32 @EVP_PKEY_up_ref(ptr noundef %6)
  %8 = icmp ne i32 %7, 0
  br i1 %8, label %10, label %9

9:                                                ; preds = %2
  store i32 0, ptr %3, align 4
  br label %18

10:                                               ; preds = %2
  %11 = load ptr, ptr %4, align 8, !tbaa !29
  %12 = load ptr, ptr %5, align 8, !tbaa !4
  %13 = call i32 @OSSL_CMP_CTX_set0_newPkey(ptr noundef %11, i32 noundef 1, ptr noundef %12)
  %14 = icmp ne i32 %13, 0
  br i1 %14, label %17, label %15

15:                                               ; preds = %10
  %16 = load ptr, ptr %5, align 8, !tbaa !4
  call void @EVP_PKEY_free(ptr noundef %16)
  store i32 0, ptr %3, align 4
  br label %18

17:                                               ; preds = %10
  store i32 1, ptr %3, align 4
  br label %18

18:                                               ; preds = %17, %15, %9
  %19 = load i32, ptr %3, align 4
  ret i32 %19
}

; Function Attrs: nounwind uwtable
define internal i32 @test_cmp_create_p10cr() #0 {
  %1 = alloca i32, align 4
  %2 = alloca ptr, align 8
  %3 = alloca ptr, align 8
  %4 = alloca ptr, align 8
  %5 = alloca i32, align 4
  %6 = alloca i32, align 4
  call void @llvm.lifetime.start.p0(i64 8, ptr %2) #4
  call void @llvm.lifetime.start.p0(i64 8, ptr %3) #4
  store ptr null, ptr %3, align 8, !tbaa !32
  call void @llvm.lifetime.start.p0(i64 8, ptr %4) #4
  %7 = call ptr @set_up(ptr noundef @.str.36)
  store ptr %7, ptr %4, align 8, !tbaa !17
  call void @llvm.lifetime.start.p0(i64 4, ptr %5) #4
  store i32 0, ptr %5, align 4, !tbaa !19
  %8 = load ptr, ptr %4, align 8, !tbaa !17
  %9 = icmp eq ptr %8, null
  br i1 %9, label %10, label %11

10:                                               ; preds = %0
  store i32 0, ptr %1, align 4
  store i32 1, ptr %6, align 4
  br label %54

11:                                               ; preds = %0
  %12 = load ptr, ptr %4, align 8, !tbaa !17
  %13 = getelementptr inbounds nuw %struct.test_fixture, ptr %12, i32 0, i32 1
  %14 = load ptr, ptr %13, align 8, !tbaa !28
  store ptr %14, ptr %2, align 8, !tbaa !29
  %15 = load ptr, ptr %4, align 8, !tbaa !17
  %16 = getelementptr inbounds nuw %struct.test_fixture, ptr %15, i32 0, i32 2
  store i32 4, ptr %16, align 8, !tbaa !21
  %17 = load ptr, ptr %4, align 8, !tbaa !17
  %18 = getelementptr inbounds nuw %struct.test_fixture, ptr %17, i32 0, i32 3
  store i32 163, ptr %18, align 4, !tbaa !26
  %19 = load ptr, ptr %4, align 8, !tbaa !17
  %20 = getelementptr inbounds nuw %struct.test_fixture, ptr %19, i32 0, i32 6
  store i32 1, ptr %20, align 8, !tbaa !27
  %21 = load ptr, ptr @pkcs10_f, align 8, !tbaa !15
  %22 = load ptr, ptr @libctx, align 8, !tbaa !13
  %23 = call ptr @load_csr_der(ptr noundef %21, ptr noundef %22)
  store ptr %23, ptr %3, align 8, !tbaa !32
  %24 = call i32 @test_ptr(ptr noundef @.str.14, i32 noundef 230, ptr noundef @.str.64, ptr noundef %23)
  %25 = icmp ne i32 %24, 0
  br i1 %25, label %26, label %42

26:                                               ; preds = %11
  %27 = load ptr, ptr %2, align 8, !tbaa !29
  %28 = load ptr, ptr @newkey, align 8, !tbaa !4
  %29 = call i32 @set1_newPkey(ptr noundef %27, ptr noundef %28)
  %30 = icmp ne i32 %29, 0
  %31 = zext i1 %30 to i32
  %32 = call i32 @test_true(ptr noundef @.str.14, i32 noundef 231, ptr noundef @.str.57, i32 noundef %31)
  %33 = icmp ne i32 %32, 0
  br i1 %33, label %34, label %42

34:                                               ; preds = %26
  %35 = load ptr, ptr %2, align 8, !tbaa !29
  %36 = load ptr, ptr %3, align 8, !tbaa !32
  %37 = call i32 @OSSL_CMP_CTX_set1_p10CSR(ptr noundef %35, ptr noundef %36)
  %38 = icmp ne i32 %37, 0
  %39 = zext i1 %38 to i32
  %40 = call i32 @test_true(ptr noundef @.str.14, i32 noundef 232, ptr noundef @.str.65, i32 noundef %39)
  %41 = icmp ne i32 %40, 0
  br i1 %41, label %44, label %42

42:                                               ; preds = %34, %26, %11
  %43 = load ptr, ptr %4, align 8, !tbaa !17
  call void @tear_down(ptr noundef %43)
  store ptr null, ptr %4, align 8, !tbaa !17
  br label %44

44:                                               ; preds = %42, %34
  %45 = load ptr, ptr %3, align 8, !tbaa !32
  call void @X509_REQ_free(ptr noundef %45)
  %46 = load ptr, ptr %4, align 8, !tbaa !17
  %47 = icmp ne ptr %46, null
  br i1 %47, label %48, label %52

48:                                               ; preds = %44
  %49 = load ptr, ptr %4, align 8, !tbaa !17
  %50 = call i32 @execute_certreq_create_test(ptr noundef %49)
  store i32 %50, ptr %5, align 4, !tbaa !19
  %51 = load ptr, ptr %4, align 8, !tbaa !17
  call void @tear_down(ptr noundef %51)
  br label %52

52:                                               ; preds = %48, %44
  %53 = load i32, ptr %5, align 4, !tbaa !19
  store i32 %53, ptr %1, align 4
  store i32 1, ptr %6, align 4
  br label %54

54:                                               ; preds = %52, %10
  call void @llvm.lifetime.end.p0(i64 4, ptr %5) #4
  call void @llvm.lifetime.end.p0(i64 8, ptr %4) #4
  call void @llvm.lifetime.end.p0(i64 8, ptr %3) #4
  call void @llvm.lifetime.end.p0(i64 8, ptr %2) #4
  %55 = load i32, ptr %1, align 4
  ret i32 %55
}