; Function Attrs: nounwind uwtable
define internal i32 @test_cmp_create_p10cr() #0 {
  %1 = tail call fastcc ptr @set_up(ptr noundef nonnull @.str.36)
  %2 = icmp eq ptr %1, null
  br i1 %2, label %37, label %3

3:                                                ; preds = %0
  %4 = getelementptr inbounds nuw i8, ptr %1, i64 8
  %5 = load ptr, ptr %4, align 8, !tbaa !25
  %6 = getelementptr inbounds nuw i8, ptr %1, i64 16
  store i32 4, ptr %6, align 8, !tbaa !17
  %7 = getelementptr inbounds nuw i8, ptr %1, i64 20
  store i32 163, ptr %7, align 4, !tbaa !23
  %8 = getelementptr inbounds nuw i8, ptr %1, i64 40
  store i32 1, ptr %8, align 8, !tbaa !24
  %9 = load ptr, ptr @pkcs10_f, align 8, !tbaa !15
  %10 = load ptr, ptr @libctx, align 8, !tbaa !13
  %11 = tail call ptr @load_csr_der(ptr noundef %9, ptr noundef %10) #4
  %12 = tail call i32 @test_ptr(ptr noundef nonnull @.str.14, i32 noundef 230, ptr noundef nonnull @.str.64, ptr noundef %11) #4
  %.not = icmp eq i32 %12, 0
  br i1 %.not, label %.thread, label %13

13:                                               ; preds = %3
  %14 = load ptr, ptr @newkey, align 8, !tbaa !4
  %15 = tail call i32 @EVP_PKEY_up_ref(ptr noundef %14) #4
  %.not.i = icmp eq i32 %15, 0
  br i1 %.not.i, label %set1_newPkey.exit, label %16

16:                                               ; preds = %13
  %17 = tail call i32 @OSSL_CMP_CTX_set0_newPkey(ptr noundef %5, i32 noundef 1, ptr noundef %14) #4
  %.not4.i = icmp eq i32 %17, 0
  br i1 %.not4.i, label %18, label %set1_newPkey.exit

18:                                               ; preds = %16
  tail call void @EVP_PKEY_free(ptr noundef %14) #4
  br label %set1_newPkey.exit

set1_newPkey.exit:                                ; preds = %13, %16, %18
  %.0.i = phi i32 [ 0, %18 ], [ 0, %13 ], [ 1, %16 ]
  %19 = tail call i32 @test_true(ptr noundef nonnull @.str.14, i32 noundef 231, ptr noundef nonnull @.str.57, i32 noundef %.0.i) #4
  %.not17 = icmp eq i32 %19, 0
  br i1 %.not17, label %.thread, label %20

20:                                               ; preds = %set1_newPkey.exit
  %21 = tail call i32 @OSSL_CMP_CTX_set1_p10CSR(ptr noundef %5, ptr noundef %11) #4
  %22 = icmp ne i32 %21, 0
  %23 = zext i1 %22 to i32
  %24 = tail call i32 @test_true(ptr noundef nonnull @.str.14, i32 noundef 232, ptr noundef nonnull @.str.65, i32 noundef %23) #4
  %.not18 = icmp eq i32 %24, 0
  br i1 %.not18, label %.thread, label %30

.thread:                                          ; preds = %3, %set1_newPkey.exit, %20
  %25 = load ptr, ptr %4, align 8, !tbaa !25
  tail call void @OSSL_CMP_CTX_free(ptr noundef %25) #4
  %26 = getelementptr inbounds nuw i8, ptr %1, i64 32
  %27 = load ptr, ptr %26, align 8, !tbaa !26
  tail call void @OSSL_CMP_MSG_free(ptr noundef %27) #4
  %28 = getelementptr inbounds nuw i8, ptr %1, i64 48
  %29 = load ptr, ptr %28, align 8, !tbaa !27
  tail call void @OSSL_CMP_PKISI_free(ptr noundef %29) #4
  tail call void @CRYPTO_free(ptr noundef nonnull %1, ptr noundef nonnull @.str.14, i32 noundef 43) #4
  tail call void @X509_REQ_free(ptr noundef %11) #4
  br label %37

30:                                               ; preds = %20
  tail call void @X509_REQ_free(ptr noundef %11) #4
  %31 = tail call fastcc i32 @execute_certreq_create_test(ptr noundef %1)
  %32 = load ptr, ptr %4, align 8, !tbaa !25
  tail call void @OSSL_CMP_CTX_free(ptr noundef %32) #4
  %33 = getelementptr inbounds nuw i8, ptr %1, i64 32
  %34 = load ptr, ptr %33, align 8, !tbaa !26
  tail call void @OSSL_CMP_MSG_free(ptr noundef %34) #4
  %35 = getelementptr inbounds nuw i8, ptr %1, i64 48
  %36 = load ptr, ptr %35, align 8, !tbaa !27
  tail call void @OSSL_CMP_PKISI_free(ptr noundef %36) #4
  tail call void @CRYPTO_free(ptr noundef nonnull %1, ptr noundef nonnull @.str.14, i32 noundef 43) #4
  br label %37

37:                                               ; preds = %.thread, %30, %0
  %.015 = phi i32 [ 0, %0 ], [ %31, %30 ], [ 0, %.thread ]
  ret i32 %.015
}